target datalayout = "e-m:e-p270:32:32-p271:32:32-p272:64:64-i64:64-i128:128-f80:128-n8:16:32:64-S128"
target triple = "x86_64-pc-linux-gnu"

%struct.pcre2_memctl = type { ptr, ptr, ptr }
%struct.pcre2_real_general_context_8 = type { %struct.pcre2_memctl }

; Function Attrs: nounwind uwtable
define dso_local ptr @php_pcre2_general_context_create(ptr noundef %0, ptr noundef %1, ptr noundef %2) #0 {
  %4 = alloca ptr, align 8
  %5 = alloca ptr, align 8
  %6 = alloca ptr, align 8
  %7 = alloca ptr, align 8
  %8 = alloca ptr, align 8
  %9 = alloca i32, align 4
  store ptr %0, ptr %5, align 8, !tbaa !14
  store ptr %1, ptr %6, align 8, !tbaa !14
  store ptr %2, ptr %7, align 8, !tbaa !14
  call void @llvm.lifetime.start.p0(i64 8, ptr %8) #6
  %10 = load ptr, ptr %5, align 8, !tbaa !14
  %11 = icmp eq ptr %10, null
  br i1 %11, label %12, label %13

12:                                               ; preds = %3
  store ptr @default_malloc, ptr %5, align 8, !tbaa !14
  br label %13

13:                                               ; preds = %12, %3
  %14 = load ptr, ptr %6, align 8, !tbaa !14
  %15 = icmp eq ptr %14, null
  br i1 %15, label %16, label %17

16:                                               ; preds = %13
  store ptr @default_free, ptr %6, align 8, !tbaa !14
  br label %17

17:                                               ; preds = %16, %13
  %18 = load ptr, ptr %5, align 8, !tbaa !14
  %19 = load ptr, ptr %7, align 8, !tbaa !14
  %20 = call ptr %18(i64 noundef 24, ptr noundef %19)
  store ptr %20, ptr %8, align 8, !tbaa !17
  %21 = load ptr, ptr %8, align 8, !tbaa !17
  %22 = icmp eq ptr %21, null
  br i1 %22, label %23, label %24

23:                                               ; preds = %17
  store ptr null, ptr %4, align 8
  store i32 1, ptr %9, align 4
  br label %38

24:                                               ; preds = %17
  %25 = load ptr, ptr %5, align 8, !tbaa !14
  %26 = load ptr, ptr %8, align 8, !tbaa !17
  %27 = getelementptr inbounds nuw %struct.pcre2_real_general_context_8, ptr %26, i32 0, i32 0
  %28 = getelementptr inbounds nuw %struct.pcre2_memctl, ptr %27, i32 0, i32 0
  store ptr %25, ptr %28, align 8, !tbaa !19
  %29 = load ptr, ptr %6, align 8, !tbaa !14
  %30 = load ptr, ptr %8, align 8, !tbaa !17
  %31 = getelementptr inbounds nuw %struct.pcre2_real_general_context_8, ptr %30, i32 0, i32 0
  %32 = getelementptr inbounds nuw %struct.pcre2_memctl, ptr %31, i32 0, i32 1
  store ptr %29, ptr %32, align 8, !tbaa !21
  %33 = load ptr, ptr %7, align 8, !tbaa !14
  %34 = load ptr, ptr %8, align 8, !tbaa !17
  %35 = getelementptr inbounds nuw %struct.pcre2_real_general_context_8, ptr %34, i32 0, i32 0
  %36 = getelementptr inbounds nuw %struct.pcre2_memctl, ptr %35, i32 0, i32 2
  store ptr %33, ptr %36, align 8, !tbaa !22
  %37 = load ptr, ptr %8, align 8, !tbaa !17
  store ptr %37, ptr %4, align 8
  store i32 1, ptr %9, align 4
  br label %38

38:                                               ; preds = %24, %23
  call void @llvm.lifetime.end.p0(i64 8, ptr %8) #6
  %39 = load ptr, ptr %4, align 8
  ret ptr %39
}