; Function Attrs: nounwind uwtable
define dso_local ptr @php_pcre2_general_context_create(ptr noundef %0, ptr noundef %1, ptr noundef %2) local_unnamed_addr #0 {
  %4 = icmp eq ptr %0, null
  %spec.store.select = select i1 %4, ptr @default_malloc, ptr %0
  %5 = tail call ptr %spec.store.select(i64 noundef 24, ptr noundef %2) #12
  %6 = icmp eq ptr %5, null
  br i1 %6, label %11, label %7

7:                                                ; preds = %3
  %8 = icmp eq ptr %1, null
  %spec.store.select1 = select i1 %8, ptr @default_free, ptr %1
  store ptr %spec.store.select, ptr %5, align 8, !tbaa !13
  %9 = getelementptr inbounds nuw i8, ptr %5, i64 8
  store ptr %spec.store.select1, ptr %9, align 8, !tbaa !15
  %10 = getelementptr inbounds nuw i8, ptr %5, i64 16
  store ptr %2, ptr %10, align 8, !tbaa !16
  br label %11

11:                                               ; preds = %3, %7
  ret ptr %5
}